; Function Attrs: mustprogress uwtable
define hidden void @_ZN5o3dgc16Arithmetic_Codec13start_decoderEv(ptr noundef nonnull align 8 captures(none) dereferenceable(44) %0) local_unnamed_addr #5 align 2 {
  %2 = getelementptr inbounds nuw i8, ptr %0, i64 40
  %3 = load i32, ptr %2, align 8
  %.not = icmp eq i32 %3, 0
  br i1 %.not, label %5, label %4

4:                                                ; preds = %1
  tail call fastcc void @_ZN5o3dgcL8AC_ErrorEPKc(ptr noundef nonnull @.str.4) #16
  unreachable

5:                                                ; preds = %1
  %6 = getelementptr inbounds nuw i8, ptr %0, i64 36
  %7 = load i32, ptr %6, align 4
  %8 = icmp eq i32 %7, 0
  br i1 %8, label %9, label %10

9:                                                ; preds = %5
  tail call fastcc void @_ZN5o3dgcL8AC_ErrorEPKc(ptr noundef nonnull @.str.3) #16
  unreachable

10:                                               ; preds = %5
  store i32 2, ptr %2, align 8
  %11 = getelementptr inbounds nuw i8, ptr %0, i64 32
  store i32 -1, ptr %11, align 8
  %12 = load ptr, ptr %0, align 8
  %13 = getelementptr inbounds nuw i8, ptr %12, i64 3
  %14 = getelementptr inbounds nuw i8, ptr %0, i64 16
  store ptr %13, ptr %14, align 8
  %15 = load i8, ptr %12, align 1
  %16 = zext i8 %15 to i32
  %17 = shl nuw i32 %16, 24
  %18 = getelementptr inbounds nuw i8, ptr %12, i64 1
  %19 = load i8, ptr %18, align 1
  %20 = zext i8 %19 to i32
  %21 = shl nuw nsw i32 %20, 16
  %22 = or disjoint i32 %21, %17
  %23 = getelementptr inbounds nuw i8, ptr %12, i64 2
  %24 = load i8, ptr %23, align 1
  %25 = zext i8 %24 to i32
  %26 = shl nuw nsw i32 %25, 8
  %27 = or disjoint i32 %22, %26
  %28 = load i8, ptr %13, align 1
  %29 = zext i8 %28 to i32
  %30 = or disjoint i32 %27, %29
  %31 = getelementptr inbounds nuw i8, ptr %0, i64 28
  store i32 %30, ptr %31, align 4
  ret void
}